; Function Attrs: mustprogress uwtable
define void @_ZN2cv4UMatC2ERKS0_(ptr noundef nonnull align 8 dereferenceable(80) initializes((0, 28), (32, 48)) %0, ptr noundef nonnull readonly align 8 captures(none) dereferenceable(80) %1) unnamed_addr #4 align 2 {
  %3 = load i32, ptr %1, align 8, !tbaa !43
  store i32 %3, ptr %0, align 8, !tbaa !43
  %4 = getelementptr inbounds nuw i8, ptr %0, i64 4
  %5 = getelementptr inbounds nuw i8, ptr %1, i64 4
  %6 = load i32, ptr %5, align 4, !tbaa !58
  store i32 %6, ptr %4, align 4, !tbaa !58
  %7 = getelementptr inbounds nuw i8, ptr %0, i64 8
  %8 = getelementptr inbounds nuw i8, ptr %1, i64 8
  %9 = load i32, ptr %8, align 8, !tbaa !64
  store i32 %9, ptr %7, align 8, !tbaa !64
  %10 = getelementptr inbounds nuw i8, ptr %0, i64 12
  %11 = getelementptr inbounds nuw i8, ptr %1, i64 12
  %12 = load i32, ptr %11, align 4, !tbaa !65
  store i32 %12, ptr %10, align 4, !tbaa !65
  %13 = getelementptr inbounds nuw i8, ptr %0, i64 16
  %14 = getelementptr inbounds nuw i8, ptr %1, i64 16
  %15 = load ptr, ptr %14, align 8, !tbaa !68
  store ptr %15, ptr %13, align 8, !tbaa !68
  %16 = getelementptr inbounds nuw i8, ptr %0, i64 24
  %17 = getelementptr inbounds nuw i8, ptr %1, i64 24
  %18 = load i32, ptr %17, align 8, !tbaa !50
  store i32 %18, ptr %16, align 8, !tbaa !50
  %19 = getelementptr inbounds nuw i8, ptr %0, i64 32
  %20 = getelementptr inbounds nuw i8, ptr %1, i64 32
  %21 = load ptr, ptr %20, align 8, !tbaa !57
  store ptr %21, ptr %19, align 8, !tbaa !57
  %22 = getelementptr inbounds nuw i8, ptr %0, i64 40
  %23 = getelementptr inbounds nuw i8, ptr %1, i64 40
  %24 = load i64, ptr %23, align 8, !tbaa !63
  store i64 %24, ptr %22, align 8, !tbaa !63
  %25 = getelementptr inbounds nuw i8, ptr %0, i64 48
  store ptr %7, ptr %25, align 8, !tbaa !51
  %26 = getelementptr inbounds nuw i8, ptr %0, i64 56
  %27 = getelementptr inbounds nuw i8, ptr %0, i64 64
  store ptr %27, ptr %26, align 8, !tbaa !52
  tail call void @llvm.memset.p0.i64(ptr noundef nonnull align 8 dereferenceable(16) %27, i8 0, i64 16, i1 false)
  %.not.i = icmp eq ptr %21, null
  br i1 %.not.i, label %_ZN2cv4UMat6addrefEv.exit, label %28

28:                                               ; preds = %2
  %29 = getelementptr inbounds nuw i8, ptr %21, i64 16
  %30 = atomicrmw add ptr %29, i32 1 acq_rel, align 8
  br label %_ZN2cv4UMat6addrefEv.exit

_ZN2cv4UMat6addrefEv.exit:                        ; preds = %2, %28
  %31 = load i32, ptr %5, align 4, !tbaa !58
  %32 = icmp slt i32 %31, 3
  br i1 %32, label %33, label %41

33:                                               ; preds = %_ZN2cv4UMat6addrefEv.exit
  %34 = getelementptr inbounds nuw i8, ptr %1, i64 56
  %35 = load ptr, ptr %34, align 8, !tbaa !52
  %36 = load i64, ptr %35, align 8, !tbaa !69
  %37 = load ptr, ptr %26, align 8, !tbaa !52
  store i64 %36, ptr %37, align 8, !tbaa !69
  %38 = getelementptr inbounds nuw i8, ptr %35, i64 8
  %39 = load i64, ptr %38, align 8, !tbaa !69
  %40 = getelementptr inbounds nuw i8, ptr %37, i64 8
  store i64 %39, ptr %40, align 8, !tbaa !69
  br label %_ZN2cv4UMat8copySizeERKS0_.exit

41:                                               ; preds = %_ZN2cv4UMat6addrefEv.exit
  store i32 0, ptr %4, align 4, !tbaa !58
  %42 = load i32, ptr %5, align 4, !tbaa !58
  tail call void @_ZN2cv7setSizeERNS_4UMatEiPKiPKmb(ptr noundef nonnull align 8 dereferenceable(80) %0, i32 noundef %42, ptr noundef null, ptr noundef null, i1 noundef zeroext false)
  %43 = load i32, ptr %4, align 4, !tbaa !58
  %44 = icmp sgt i32 %43, 0
  br i1 %44, label %.lr.ph.i, label %_ZN2cv4UMat8copySizeERKS0_.exit

.lr.ph.i:                                         ; preds = %41
  %45 = getelementptr inbounds nuw i8, ptr %1, i64 48
  %46 = load ptr, ptr %45, align 8, !tbaa !51
  %47 = load ptr, ptr %25, align 8, !tbaa !51
  %48 = getelementptr inbounds nuw i8, ptr %1, i64 56
  %49 = load ptr, ptr %48, align 8, !tbaa !52
  %50 = load ptr, ptr %26, align 8, !tbaa !52
  br label %51

51:                                               ; preds = %51, %.lr.ph.i
  %indvars.iv.i = phi i64 [ 0, %.lr.ph.i ], [ %indvars.iv.next.i, %51 ]
  %52 = getelementptr inbounds nuw i32, ptr %46, i64 %indvars.iv.i
  %53 = load i32, ptr %52, align 4, !tbaa !28
  %54 = getelementptr inbounds nuw i32, ptr %47, i64 %indvars.iv.i
  store i32 %53, ptr %54, align 4, !tbaa !28
  %55 = getelementptr inbounds nuw i64, ptr %49, i64 %indvars.iv.i
  %56 = load i64, ptr %55, align 8, !tbaa !69
  %57 = getelementptr inbounds nuw i64, ptr %50, i64 %indvars.iv.i
  store i64 %56, ptr %57, align 8, !tbaa !69
  %indvars.iv.next.i = add nuw nsw i64 %indvars.iv.i, 1
  %58 = load i32, ptr %4, align 4, !tbaa !58
  %59 = sext i32 %58 to i64
  %60 = icmp slt i64 %indvars.iv.next.i, %59
  br i1 %60, label %51, label %_ZN2cv4UMat8copySizeERKS0_.exit, !llvm.loop !70

_ZN2cv4UMat8copySizeERKS0_.exit:                  ; preds = %51, %41, %33
  ret void
}